target datalayout = "e-m:e-p270:32:32-p271:32:32-p272:64:64-i64:64-i128:128-f80:128-n8:16:32:64-S128"
target triple = "x86_64-pc-linux-gnu"

%class.mpff_manager = type <{ i32, i32, %class.svector, i32, i8, [3 x i8], %class.id_gen, [4 x %class.svector], %class.svector, %class.mpff, [8 x i8] }>
%class.id_gen = type { i32, %class.svector }
%class.svector = type { %class.vector }
%class.vector = type { ptr }
%class.mpff = type { i32, i32 }

; Function Attrs: mustprogress nounwind uwtable
define linkonce_odr hidden noundef ptr @_ZNK6vectorIjLb0EjE4dataEv(ptr noundef nonnull align 8 dereferenceable(8) %0) #5 comdat align 2 {
  %2 = alloca ptr, align 8
  store ptr %0, ptr %2, align 8, !tbaa !32
  %3 = load ptr, ptr %2, align 8
  %4 = getelementptr inbounds nuw %class.vector, ptr %3, i32 0, i32 0
  %5 = load ptr, ptr %4, align 8, !tbaa !35
  ret ptr %5
}

; Function Attrs: mustprogress uwtable
define linkonce_odr hidden noundef ptr @_ZNK12mpff_manager3sigERK4mpff(ptr noundef nonnull align 8 dereferenceable(89) %0, ptr noundef nonnull align 4 dereferenceable(8) %1) #4 comdat align 2 {
  %3 = alloca ptr, align 8
  %4 = alloca ptr, align 8
  store ptr %0, ptr %3, align 8, !tbaa !3
  store ptr %1, ptr %4, align 8, !tbaa !29
  %5 = load ptr, ptr %3, align 8
  %6 = getelementptr inbounds nuw %class.mpff_manager, ptr %5, i32 0, i32 2
  %7 = call noundef ptr @_ZNK6vectorIjLb0EjE4dataEv(ptr noundef nonnull align 8 dereferenceable(8) %6)
  %8 = load ptr, ptr %4, align 8, !tbaa !29
  %9 = load i32, ptr %8, align 4
  %10 = lshr i32 %9, 1
  %11 = getelementptr inbounds nuw %class.mpff_manager, ptr %5, i32 0, i32 0
  %12 = load i32, ptr %11, align 8, !tbaa !10
  %13 = mul i32 %10, %12
  %14 = zext i32 %13 to i64
  %15 = getelementptr inbounds nuw i32, ptr %7, i64 %14
  ret ptr %15
}

; Function Attrs: mustprogress uwtable
define hidden noundef zeroext i1 @_ZNK12mpff_manager15min_significandERK4mpff(ptr noundef nonnull align 8 dereferenceable(89) %0, ptr noundef nonnull align 4 dereferenceable(8) %1) #4 align 2 {
  %3 = alloca ptr, align 8
  %4 = alloca ptr, align 8
  %5 = alloca ptr, align 8
  store ptr %0, ptr %3, align 8, !tbaa !3
  store ptr %1, ptr %4, align 8, !tbaa !29
  %6 = load ptr, ptr %3, align 8
  call void @llvm.lifetime.start.p0(i64 8, ptr %5) #3
  %7 = load ptr, ptr %4, align 8, !tbaa !29
  %8 = call noundef ptr @_ZNK12mpff_manager3sigERK4mpff(ptr noundef nonnull align 8 dereferenceable(89) %6, ptr noundef nonnull align 4 dereferenceable(8) %7)
  store ptr %8, ptr %5, align 8, !tbaa !36
  %9 = load ptr, ptr %5, align 8, !tbaa !36
  %10 = getelementptr inbounds nuw %class.mpff_manager, ptr %6, i32 0, i32 0
  %11 = load i32, ptr %10, align 8, !tbaa !10
  %12 = sub i32 %11, 1
  %13 = zext i32 %12 to i64
  %14 = getelementptr inbounds nuw i32, ptr %9, i64 %13
  %15 = load i32, ptr %14, align 4, !tbaa !8
  %16 = icmp eq i32 %15, -2147483648
  br i1 %16, label %17, label %23

17:                                               ; preds = %2
  %18 = getelementptr inbounds nuw %class.mpff_manager, ptr %6, i32 0, i32 0
  %19 = load i32, ptr %18, align 8, !tbaa !10
  %20 = sub i32 %19, 1
  %21 = load ptr, ptr %5, align 8, !tbaa !36
  %22 = call noundef zeroext i1 @_Z7is_zerojPKj(i32 noundef %20, ptr noundef %21)
  br label %23

23:                                               ; preds = %17, %2
  %24 = phi i1 [ false, %2 ], [ %22, %17 ]
  call void @llvm.lifetime.end.p0(i64 8, ptr %5) #3
  ret i1 %24
}

; Function Attrs: mustprogress uwtable
define hidden noundef zeroext i1 @_ZNK12mpff_manager16is_minus_epsilonERK4mpff(ptr noundef nonnull align 8 dereferenceable(89) %0, ptr noundef nonnull align 4 dereferenceable(8) %1) #4 align 2 {
  %3 = alloca ptr, align 8
  %4 = alloca ptr, align 8
  store ptr %0, ptr %3, align 8, !tbaa !3
  store ptr %1, ptr %4, align 8, !tbaa !29
  %5 = load ptr, ptr %3, align 8
  %6 = load ptr, ptr %4, align 8, !tbaa !29
  %7 = load i32, ptr %6, align 4
  %8 = and i32 %7, 1
  %9 = icmp eq i32 %8, 1
  br i1 %9, label %10, label %18

10:                                               ; preds = %2
  %11 = load ptr, ptr %4, align 8, !tbaa !29
  %12 = getelementptr inbounds nuw %class.mpff, ptr %11, i32 0, i32 1
  %13 = load i32, ptr %12, align 4, !tbaa !31
  %14 = icmp eq i32 %13, -2147483648
  br i1 %14, label %15, label %18

15:                                               ; preds = %10
  %16 = load ptr, ptr %4, align 8, !tbaa !29
  %17 = call noundef zeroext i1 @_ZNK12mpff_manager15min_significandERK4mpff(ptr noundef nonnull align 8 dereferenceable(89) %5, ptr noundef nonnull align 4 dereferenceable(8) %16)
  br label %18

18:                                               ; preds = %15, %10, %2
  %19 = phi i1 [ false, %10 ], [ false, %2 ], [ %17, %15 ]
  ret i1 %19
}