; Function Attrs: mustprogress uwtable
define hidden noundef zeroext i1 @_ZNK12mpff_manager16is_minus_epsilonERK4mpff(ptr noundef nonnull readonly align 8 captures(none) dereferenceable(89) %0, ptr noundef nonnull readonly align 4 captures(none) dereferenceable(8) %1) local_unnamed_addr #3 align 2 {
  %3 = load i32, ptr %1, align 4
  %4 = and i32 %3, 1
  %.not = icmp ne i32 %4, 0
  %5 = getelementptr inbounds nuw i8, ptr %1, i64 4
  %6 = load i32, ptr %5, align 4
  %7 = icmp eq i32 %6, -2147483648
  %or.cond = select i1 %.not, i1 %7, i1 false
  br i1 %or.cond, label %8, label %_ZNK12mpff_manager15min_significandERK4mpff.exit

8:                                                ; preds = %2
  %9 = getelementptr inbounds nuw i8, ptr %0, i64 8
  %10 = load ptr, ptr %9, align 8, !tbaa !3
  %11 = lshr i32 %3, 1
  %12 = load i32, ptr %0, align 8, !tbaa !13
  %13 = mul i32 %12, %11
  %14 = zext i32 %13 to i64
  %15 = getelementptr inbounds nuw i32, ptr %10, i64 %14
  %16 = add i32 %12, -1
  %17 = zext i32 %16 to i64
  %18 = getelementptr inbounds nuw i32, ptr %15, i64 %17
  %19 = load i32, ptr %18, align 4, !tbaa !21
  %20 = icmp eq i32 %19, -2147483648
  br i1 %20, label %21, label %_ZNK12mpff_manager15min_significandERK4mpff.exit

21:                                               ; preds = %8
  %22 = tail call noundef zeroext i1 @_Z7is_zerojPKj(i32 noundef %16, ptr noundef nonnull %15)
  br label %_ZNK12mpff_manager15min_significandERK4mpff.exit

_ZNK12mpff_manager15min_significandERK4mpff.exit: ; preds = %21, %8, %2
  %23 = phi i1 [ false, %2 ], [ false, %8 ], [ %22, %21 ]
  ret i1 %23
}